(lp0
I86
aI45
aI191
aI494
aI273
aI100
aI58
aI82
aI130
aI170
aI120
aI114
aI197
aI215
aI142
aI86
aI275
aI295
aI125
aI99
aI85
aI101
aI152
aI57
aI90
aI266
aI46
aI239
aI48
aI13
aI239
aI46
aI14
aI89
aI193
aI81
aI7
aI79
aI48
aI99
aI72
aI14
aI38
aI56
aI68
aI307
aI33
aI234
aI151
aI45
aI60
aI173
aI35
aI74
aI123
aI232
aI25
aI193
aI288
aI44
aI203
aI138
aI246
aI66
aI188
aI36
aI36
aI111
aI30
aI155
aI80
aI328
aI49
aI250
aI146
aI47
aI305
aI169
aI21
aI111
aI70
aI6
aI46
aI111
aI13
aI136
aI283
aI56
aI97
aI129
aI33
aI52
aI67
aI12
aI275
aI167
aI234
aI92
aI81
aI165
aI51
aI269
aI7
aI59
aI233
aI62
aI310
aI919
aI337
aI172
aI50
aI231
aI26
aI49
aI116
aI64
aI221
aI126
aI43
aI139
aI122
aI165
aI53
aI36
aI104
aI76
aI17
aI88
aI301
aI91
aI105
aI33
aI340
aI54
aI18
aI67
aI73
aI57
aI117
aI79
aI100
aI47
aI503
aI364
aI270
aI69
aI104
aI107
aI70
aI478
aI51
aI94
aI45
aI84
aI206
aI336
aI57
aI94
aI292
aI478
aI84
aI269
aI194
aI15
aI245
aI263
aI256
aI24
aI204
aI81
aI49
aI44
aI116
aI178
aI50
aI60
aI123
aI187
aI126
aI106
aI281
aI219
aI223
aI129
aI293
aI48
aI36
aI221
aI150
aI250
aI66
aI46
aI18
aI333
aI39
aI209
aI40
aI99
aI165
aI66
aI40
aI34
aI91
aI71
aI59
aI86
aI40
aI4
aI120
aI54
aI73
aI69
aI219
aI120
aI151
aI39
aI123
aI111
aI127
aI111
aI144
aI355
aI50
aI271
aI49
aI138
aI250
aI137
aI73
aI30
aI90
aI183
aI242
aI210
aI107
aI363
aI130
aI221
aI114
aI99
aI44
aI33
aI44
aI353
aI117
aI271
aI62
aI69
aI159
aI393
aI219
aI85
aI26
aI248
aI140
aI235
aI30
aI137
aI131
aI212
aI33
aI81
aI120
aI21
aI183
aI189
aI119
aI76
aI75
aI90
aI102
aI48
aI748
aI29
aI69
aI135
aI166
aI76
aI107
aI96
aI63
aI104
aI124
aI139
aI68
aI41
aI188
aI30
aI20
aI55
aI99
aI62
aI292
aI63
aI64
aI80
aI55
aI124
aI132
aI98
aI238
aI118
aI70
aI112
aI88
aI32
aI31
aI100
aI97
aI103
aI107
aI76
aI288
aI17
aI51
aI77
aI423
aI43
aI96
aI148
aI63
aI127
aI208
aI76
aI74
aI140
aI39
aI152
aI34
aI95
aI242
aI67
aI68
aI169
aI21
aI221
aI207
aI263
aI190
aI20
aI227
aI50
aI169
aI262
aI132
aI82
aI56
aI61
aI163
aI34
aI102
aI180
aI149
aI21
aI60
aI217
aI159
aI101
aI125
aI78
aI79
aI16
aI81
aI377
aI110
aI93
aI62
aI120
aI144
aI181
aI127
aI336
aI119
aI491
aI61
aI73
aI166
aI126
aI40
aI77
aI58
aI345
aI152
aI162
aI280
aI366
aI58
aI79
aI149
aI179
aI112
aI129
aI77
aI157
aI427
aI72
aI115
aI114
aI12
aI199
aI87
aI79
aI178
aI114
aI121
aI44
aI27
aI123
aI169
aI82
aI17
aI76
aI541
aI48
aI77
aI66
aI339
aI264
aI169
aI43
aI250
aI126
aI122
aI102
aI10
aI99
aI42
aI268
aI48
aI62
aI108
aI392
aI156
aI24
aI64
aI170
aI246
aI254
aI65
aI79
aI28
aI48
aI37
aI53
aI86
aI119
aI149
aI29
aI95
aI111
aI81
aI299
aI67
aI546
aI93
aI49
aI36
aI44
aI584
aI128
aI90
aI399
aI52
aI64
aI121
aI477
aI271
aI240
aI238
aI399
aI171
aI121
aI128
aI334
aI13
aI32
aI314
aI45
aI61
aI419
aI101
aI111
aI442
aI456
aI71
aI14
aI64
aI28
aI404
aI152
aI117
aI131
aI70
aI96
aI13
aI16
aI284
aI164
aI71
aI72
a.